target datalayout = "e-m:e-p270:32:32-p271:32:32-p272:64:64-i64:64-i128:128-f80:128-n8:16:32:64-S128"
target triple = "x86_64-pc-linux-gnu"

; Function Attrs: mustprogress nounwind uwtable
define linkonce_odr void @_ZN5arrow2io8ReadableD2Ev(ptr noundef nonnull align 8 dereferenceable(8) %0) unnamed_addr #0 comdat align 2 {
  %2 = alloca ptr, align 8
  store ptr %0, ptr %2, align 8, !tbaa !41
  ret void
}

; Function Attrs: mustprogress nounwind uwtable
define void @_ZN5arrow2io20SlowRandomAccessFileD2Ev(ptr noundef nonnull align 8 dereferenceable(56) %0, ptr noundef %1) unnamed_addr #0 align 2 personality ptr @__gxx_personality_v0 {
  %3 = alloca ptr, align 8
  %4 = alloca ptr, align 8
  store ptr %0, ptr %3, align 8, !tbaa !48
  store ptr %1, ptr %4, align 8, !tbaa !38
  %5 = load ptr, ptr %3, align 8
  %6 = load ptr, ptr %4, align 8
  %7 = load ptr, ptr %6, align 8
  store ptr %7, ptr %5, align 8, !tbaa !8
  %8 = getelementptr inbounds ptr, ptr %6, i64 10
  %9 = load ptr, ptr %8, align 8
  %10 = load ptr, ptr %5, align 8, !tbaa !8
  %11 = getelementptr i8, ptr %10, i64 -56
  %12 = load i64, ptr %11, align 8
  %13 = getelementptr inbounds i8, ptr %5, i64 %12
  store ptr %9, ptr %13, align 8, !tbaa !8
  %14 = getelementptr inbounds ptr, ptr %6, i64 11
  %15 = load ptr, ptr %14, align 8
  %16 = load ptr, ptr %5, align 8, !tbaa !8
  %17 = getelementptr i8, ptr %16, i64 -64
  %18 = load i64, ptr %17, align 8
  %19 = getelementptr inbounds i8, ptr %5, i64 %18
  store ptr %15, ptr %19, align 8, !tbaa !8
  %20 = getelementptr inbounds i8, ptr %5, i64 8
  store ptr getelementptr inbounds inrange(-16, 24) ({ [28 x ptr], [5 x ptr], [15 x ptr] }, ptr @_ZTVN5arrow2io20SlowRandomAccessFileE, i32 0, i32 1, i32 2), ptr %20, align 8, !tbaa !8
  %21 = load ptr, ptr %5, align 8, !tbaa !8
  %22 = getelementptr i8, ptr %21, i64 -56
  %23 = load i64, ptr %22, align 8
  %24 = getelementptr inbounds i8, ptr %5, i64 %23
  invoke void @_ZN5arrow2io8internal19CloseFromDestructorEPNS0_13FileInterfaceE(ptr noundef %24)
          to label %25 unwind label %27

25:                                               ; preds = %2
  %26 = getelementptr inbounds ptr, ptr %6, i64 1
  call void @_ZN5arrow2io19SlowInputStreamBaseINS0_16RandomAccessFileEED2Ev(ptr noundef nonnull align 8 dereferenceable(56) %5, ptr noundef %26) #24
  ret void

27:                                               ; preds = %2
  %28 = landingpad { ptr, i32 }
          catch ptr null
  %29 = extractvalue { ptr, i32 } %28, 0
  call void @__clang_call_terminate(ptr %29) #23
  unreachable
}

; Function Attrs: mustprogress nounwind uwtable
define void @_ZN5arrow2io20SlowRandomAccessFileD1Ev(ptr noundef nonnull align 8 dereferenceable(56) %0) unnamed_addr #0 align 2 {
  %2 = alloca ptr, align 8
  store ptr %0, ptr %2, align 8, !tbaa !48
  %3 = load ptr, ptr %2, align 8
  call void @_ZN5arrow2io20SlowRandomAccessFileD2Ev(ptr noundef nonnull align 8 dereferenceable(56) %3, ptr noundef @_ZTTN5arrow2io20SlowRandomAccessFileE) #24
  call void @_ZN5arrow2io8ReadableD2Ev(ptr noundef nonnull align 8 dereferenceable(8) %3) #24
  %4 = getelementptr inbounds i8, ptr %3, i64 56
  call void @_ZN5arrow2io13FileInterfaceD2Ev(ptr noundef nonnull align 8 dereferenceable(28) %4) #24
  ret void
}

; Function Attrs: mustprogress nounwind uwtable
define void @_ZN5arrow2io20SlowRandomAccessFileD0Ev(ptr noundef nonnull align 8 dereferenceable(56) %0) unnamed_addr #0 align 2 {
  %2 = alloca ptr, align 8
  store ptr %0, ptr %2, align 8, !tbaa !48
  %3 = load ptr, ptr %2, align 8
  call void @_ZN5arrow2io20SlowRandomAccessFileD1Ev(ptr noundef nonnull align 8 dereferenceable(56) %3) #24
  call void @_ZdlPvm(ptr noundef %3, i64 noundef 88) #26
  ret void
}

; Function Attrs: nounwind uwtable
define void @_ZThn8_N5arrow2io20SlowRandomAccessFileD0Ev(ptr noundef %0) unnamed_addr #9 align 2 {
  %2 = alloca ptr, align 8
  store ptr %0, ptr %2, align 8, !tbaa !48
  %3 = load ptr, ptr %2, align 8
  %4 = getelementptr inbounds i8, ptr %3, i64 -8
  tail call void @_ZN5arrow2io20SlowRandomAccessFileD0Ev(ptr noundef nonnull align 8 dereferenceable(56) %4) #24
  ret void
}